; Function Attrs: mustprogress uwtable
define void @_ZNK7Imf_3_215OpaqueAttribute12writeValueToERNS_7OStreamEi(ptr nocapture noundef nonnull readonly align 8 dereferenceable(64) %this, ptr noundef nonnull align 8 dereferenceable(40) %os, i32 %version) unnamed_addr #3 align 2 {
entry:
  %_data.i = getelementptr inbounds i8, ptr %this, i64 56
  %0 = load ptr, ptr %_data.i, align 8
  %_dataSize = getelementptr inbounds i8, ptr %this, i64 40
  %1 = load i64, ptr %_dataSize, align 8
  %conv = trunc i64 %1 to i32
  %vtable.i.i = load ptr, ptr %os, align 8
  %vfn.i.i = getelementptr inbounds i8, ptr %vtable.i.i, i64 16
  %2 = load ptr, ptr %vfn.i.i, align 8
  tail call void %2(ptr noundef nonnull align 8 dereferenceable(40) %os, ptr noundef %0, i32 noundef %conv)
  ret void
}